; Function Attrs: mustprogress uwtable
define noundef ptr @_ZN4toku3wfg9find_nodeEm(ptr noundef nonnull align 8 dereferenceable(24) %0, i64 noundef %1) local_unnamed_addr #0 align 2 {
  %3 = alloca i32, align 4
  %4 = alloca i64, align 8
  %5 = alloca ptr, align 8
  store i64 %1, ptr %4, align 8, !tbaa !28
  call void @llvm.lifetime.start.p0(i64 8, ptr nonnull %5) #9
  store ptr null, ptr %5, align 8, !tbaa !20
  call void @llvm.lifetime.start.p0(i64 4, ptr nonnull %3) #9
  %6 = load i8, ptr %0, align 8, !tbaa !4, !range !12, !noundef !13
  %7 = trunc nuw i8 %6 to i1
  %8 = getelementptr inbounds nuw i8, ptr %0, i64 8
  br i1 %7, label %9, label %33

9:                                                ; preds = %2
  %10 = getelementptr inbounds nuw i8, ptr %0, i64 12
  %11 = load i32, ptr %10, align 4, !tbaa !11
  %.not38.i.i = icmp eq i32 %11, 0
  br i1 %.not38.i.i, label %_ZNK4toku3omtIPNS_3wfg4nodeES3_Lb0EE9find_zeroImTnPFiRKS3_RKT_EXadL_ZNS1_13find_by_txnidES7_RKmEEEEiSA_PS3_Pj.exit, label %.lr.ph.i.i

.lr.ph.i.i:                                       ; preds = %9
  %12 = load i32, ptr %8, align 8, !tbaa !11
  %13 = add i32 %11, %12
  %14 = getelementptr inbounds nuw i8, ptr %0, i64 16
  %15 = load ptr, ptr %14, align 8, !tbaa !11
  br label %16

16:                                               ; preds = %28, %.lr.ph.i.i
  %.02442.i.i = phi i32 [ %12, %.lr.ph.i.i ], [ %.1.i.i, %28 ]
  %.02541.i.i = phi i32 [ -1, %.lr.ph.i.i ], [ %.126.i.i, %28 ]
  %.02740.i.i = phi i32 [ -1, %.lr.ph.i.i ], [ %.128.i.i, %28 ]
  %.02939.i.i = phi i32 [ %13, %.lr.ph.i.i ], [ %.130.i.i, %28 ]
  %17 = add i32 %.02939.i.i, %.02442.i.i
  %18 = lshr i32 %17, 1
  %19 = zext nneg i32 %18 to i64
  %20 = getelementptr inbounds nuw ptr, ptr %15, i64 %19
  %21 = load ptr, ptr %20, align 8, !tbaa !20
  %22 = load i64, ptr %21, align 8, !tbaa !23
  %23 = icmp ult i64 %22, %1
  br i1 %23, label %24, label %26

24:                                               ; preds = %16
  %25 = add nuw i32 %18, 1
  br label %28

26:                                               ; preds = %16
  %.not37.i.i = icmp eq i64 %22, %1
  %.027..i.i = select i1 %.not37.i.i, i32 %.02740.i.i, i32 %18
  %..025.i.i = select i1 %.not37.i.i, i32 %18, i32 %.02541.i.i
  %27 = freeze i32 %.027..i.i
  br label %28

28:                                               ; preds = %26, %24
  %.130.i.i = phi i32 [ %.02939.i.i, %24 ], [ %18, %26 ]
  %.128.i.i = phi i32 [ %.02740.i.i, %24 ], [ %27, %26 ]
  %.126.i.i = phi i32 [ %.02541.i.i, %24 ], [ %..025.i.i, %26 ]
  %.1.i.i = phi i32 [ %25, %24 ], [ %.02442.i.i, %26 ]
  %.not.i.i = icmp eq i32 %.1.i.i, %.130.i.i
  br i1 %.not.i.i, label %._crit_edge.i.i, label %16, !llvm.loop !29

._crit_edge.i.i:                                  ; preds = %28
  %.not33.i.i = icmp eq i32 %.126.i.i, -1
  br i1 %.not33.i.i, label %_ZNK4toku3omtIPNS_3wfg4nodeES3_Lb0EE9find_zeroImTnPFiRKS3_RKT_EXadL_ZNS1_13find_by_txnidES7_RKmEEEEiSA_PS3_Pj.exit, label %29

29:                                               ; preds = %._crit_edge.i.i
  %30 = zext nneg i32 %.126.i.i to i64
  %31 = getelementptr inbounds nuw ptr, ptr %15, i64 %30
  %32 = load ptr, ptr %31, align 8, !tbaa !20
  br label %_ZNK4toku3omtIPNS_3wfg4nodeES3_Lb0EE9find_zeroImTnPFiRKS3_RKT_EXadL_ZNS1_13find_by_txnidES7_RKmEEEEiSA_PS3_Pj.exit

33:                                               ; preds = %2
  %34 = call noundef i32 @_ZNK4toku3omtIPNS_3wfg4nodeES3_Lb0EE18find_internal_zeroImTnPFiRKS3_RKT_EXadL_ZNS1_13find_by_txnidES7_RKmEEEEiRKNS_12omt_internal17subtree_templatedILb0EEESA_PS3_Pj(ptr noundef nonnull align 8 dereferenceable(24) %0, ptr noundef nonnull align 4 dereferenceable(4) %8, ptr noundef nonnull align 8 dereferenceable(8) %4, ptr noundef nonnull %5, ptr noundef nonnull %3)
  %.pre = load ptr, ptr %5, align 8, !tbaa !20
  br label %_ZNK4toku3omtIPNS_3wfg4nodeES3_Lb0EE9find_zeroImTnPFiRKS3_RKT_EXadL_ZNS1_13find_by_txnidES7_RKmEEEEiSA_PS3_Pj.exit

_ZNK4toku3omtIPNS_3wfg4nodeES3_Lb0EE9find_zeroImTnPFiRKS3_RKT_EXadL_ZNS1_13find_by_txnidES7_RKmEEEEiSA_PS3_Pj.exit: ; preds = %._crit_edge.i.i, %29, %9, %33
  %35 = phi ptr [ %.pre, %33 ], [ %32, %29 ], [ null, %9 ], [ null, %._crit_edge.i.i ]
  call void @llvm.lifetime.end.p0(i64 4, ptr nonnull %3) #9
  call void @llvm.lifetime.end.p0(i64 8, ptr nonnull %5) #9
  ret ptr %35
}